target datalayout = "e-m:e-p270:32:32-p271:32:32-p272:64:64-i64:64-i128:128-f80:128-n8:16:32:64-S128"
target triple = "x86_64-unknown-linux-gnu"

%"struct.hermes::vm::sampling_profiler::(anonymous namespace)::SamplerPosix" = type { %"struct.hermes::vm::sampling_profiler::Sampler", i8, %"class.hermes::Semaphore" }
%"struct.hermes::vm::sampling_profiler::Sampler" = type { ptr, %"class.std::mutex", %"class.std::unordered_set", i8, i32, %"struct.hermes::vm::SamplingProfiler::StackTrace", %"class.std::thread", %"class.std::condition_variable" }
%"class.std::mutex" = type { %"class.std::__mutex_base" }
%"class.std::__mutex_base" = type { %union.pthread_mutex_t }
%union.pthread_mutex_t = type { %struct.__pthread_mutex_s }
%struct.__pthread_mutex_s = type { i32, i32, i32, i32, i32, i16, i16, %struct.__pthread_internal_list }
%struct.__pthread_internal_list = type { ptr, ptr }
%"class.std::unordered_set" = type { %"class.std::_Hashtable" }
%"class.std::_Hashtable" = type { ptr, i64, %"struct.std::__detail::_Hash_node_base", i64, %"struct.std::__detail::_Prime_rehash_policy", ptr }
%"struct.std::__detail::_Hash_node_base" = type { ptr }
%"struct.std::__detail::_Prime_rehash_policy" = type { float, i64 }
%"struct.hermes::vm::SamplingProfiler::StackTrace" = type { i64, %"class.std::chrono::time_point", %"class.std::vector" }
%"class.std::chrono::time_point" = type { %"class.std::chrono::duration" }
%"class.std::chrono::duration" = type { i64 }
%"class.std::vector" = type { %"struct.std::_Vector_base" }
%"struct.std::_Vector_base" = type { %"struct.std::_Vector_base<hermes::vm::SamplingProfiler::StackFrame, std::allocator<hermes::vm::SamplingProfiler::StackFrame>>::_Vector_impl" }
%"struct.std::_Vector_base<hermes::vm::SamplingProfiler::StackFrame, std::allocator<hermes::vm::SamplingProfiler::StackFrame>>::_Vector_impl" = type { %"struct.std::_Vector_base<hermes::vm::SamplingProfiler::StackFrame, std::allocator<hermes::vm::SamplingProfiler::StackFrame>>::_Vector_impl_data" }
%"struct.std::_Vector_base<hermes::vm::SamplingProfiler::StackFrame, std::allocator<hermes::vm::SamplingProfiler::StackFrame>>::_Vector_impl_data" = type { ptr, ptr, ptr }
%"class.std::thread" = type { %"class.std::thread::id" }
%"class.std::thread::id" = type { i64 }
%"class.std::condition_variable" = type { %"class.std::__condvar" }
%"class.std::__condvar" = type { %union.pthread_cond_t }
%union.pthread_cond_t = type { %struct.__pthread_cond_s }
%struct.__pthread_cond_s = type { %union.__atomic_wide_counter, %union.__atomic_wide_counter, [2 x i32], [2 x i32], i32, i32, [2 x i32] }
%union.__atomic_wide_counter = type { i64 }
%"class.hermes::Semaphore" = type { %union.sem_t }
%union.sem_t = type { i64, [24 x i8] }
%struct.sigaction = type { %union.anon.215, %struct.__sigset_t, i32, ptr }
%union.anon.215 = type { ptr }
%struct.__sigset_t = type { [16 x i64] }

@.str.2 = private unnamed_addr constant [37 x i8] c"signal handler unregistration failed\00", align 1

; Function Attrs: mustprogress nounwind uwtable
define internal noundef i32 @_ZN6hermes2vm17sampling_profiler12_GLOBAL__N_118invokeSignalActionEPFviE(ptr noundef %handler) #0 {
entry:
  %handler.addr = alloca ptr, align 8
  %actions = alloca %struct.sigaction, align 8
  store ptr %handler, ptr %handler.addr, align 8
  call void @llvm.memset.p0.i64(ptr align 8 %actions, i8 0, i64 152, i1 false)
  %sa_mask = getelementptr inbounds %struct.sigaction, ptr %actions, i32 0, i32 1
  %call = call i32 @sigemptyset(ptr noundef %sa_mask) #1
  %sa_flags = getelementptr inbounds %struct.sigaction, ptr %actions, i32 0, i32 2
  store i32 268435456, ptr %sa_flags, align 8
  %0 = load ptr, ptr %handler.addr, align 8
  %__sigaction_handler = getelementptr inbounds %struct.sigaction, ptr %actions, i32 0, i32 0
  store ptr %0, ptr %__sigaction_handler, align 8
  %call1 = call i32 @sigaction(i32 noundef 27, ptr noundef %actions, ptr noundef null) #1
  ret i32 %call1
}

; Function Attrs: mustprogress nounwind uwtable
define internal noundef zeroext i1 @_ZN6hermes2vm17sampling_profiler12_GLOBAL__N_112SamplerPosix23unregisterSignalHandlerEv(ptr noundef nonnull align 8 dereferenceable(248) %this) #0 align 2 {
entry:
  %retval = alloca i1, align 1
  %this.addr = alloca ptr, align 8
  store ptr %this, ptr %this.addr, align 8
  %this1 = load ptr, ptr %this.addr, align 8
  %isSigHandlerRegistered_ = getelementptr inbounds %"struct.hermes::vm::sampling_profiler::(anonymous namespace)::SamplerPosix", ptr %this1, i32 0, i32 1
  %0 = load i8, ptr %isSigHandlerRegistered_, align 8
  %tobool = trunc i8 %0 to i1
  br i1 %tobool, label %if.end, label %if.then

if.then:                                          ; preds = %entry
  store i1 true, ptr %retval, align 1
  br label %return

if.end:                                           ; preds = %entry
  %call = call noundef i32 @_ZN6hermes2vm17sampling_profiler12_GLOBAL__N_118invokeSignalActionEPFviE(ptr noundef null)
  %cmp = icmp ne i32 %call, 0
  br i1 %cmp, label %if.then2, label %if.end3

if.then2:                                         ; preds = %if.end
  call void @perror(ptr noundef @.str.2)
  store i1 false, ptr %retval, align 1
  br label %return

if.end3:                                          ; preds = %if.end
  %isSigHandlerRegistered_4 = getelementptr inbounds %"struct.hermes::vm::sampling_profiler::(anonymous namespace)::SamplerPosix", ptr %this1, i32 0, i32 1
  store i8 0, ptr %isSigHandlerRegistered_4, align 8
  store i1 true, ptr %retval, align 1
  br label %return

return:                                           ; preds = %if.end3, %if.then2, %if.then
  %1 = load i1, ptr %retval, align 1
  ret i1 %1
}

; Function Attrs: mustprogress nounwind uwtable
define hidden noundef zeroext i1 @_ZN6hermes2vm17sampling_profiler7Sampler15platformDisableEv(ptr noundef nonnull align 8 dereferenceable(208) %this) #0 align 2 {
entry:
  %retval = alloca i1, align 1
  %this.addr = alloca ptr, align 8
  %self = alloca ptr, align 8
  store ptr %this, ptr %this.addr, align 8
  %this1 = load ptr, ptr %this.addr, align 8
  store ptr %this1, ptr %self, align 8
  %0 = load ptr, ptr %self, align 8
  %samplingDoneSem_ = getelementptr inbounds %"struct.hermes::vm::sampling_profiler::(anonymous namespace)::SamplerPosix", ptr %0, i32 0, i32 2
  %call = call noundef zeroext i1 @_ZN6hermes9Semaphore5closeEv(ptr noundef nonnull align 8 dereferenceable(32) %samplingDoneSem_)
  br i1 %call, label %if.end, label %if.then

if.then:                                          ; preds = %entry
  store i1 false, ptr %retval, align 1
  br label %return

if.end:                                           ; preds = %entry
  %1 = load ptr, ptr %self, align 8
  %call2 = call noundef zeroext i1 @_ZN6hermes2vm17sampling_profiler12_GLOBAL__N_112SamplerPosix23unregisterSignalHandlerEv(ptr noundef nonnull align 8 dereferenceable(248) %1)
  br i1 %call2, label %if.end4, label %if.then3

if.then3:                                         ; preds = %if.end
  store i1 false, ptr %retval, align 1
  br label %return

if.end4:                                          ; preds = %if.end
  store i1 true, ptr %retval, align 1
  br label %return

return:                                           ; preds = %if.end4, %if.then3, %if.then
  %2 = load i1, ptr %retval, align 1
  ret i1 %2
}