; Function Attrs: mustprogress nounwind uwtable
define hidden noundef zeroext i1 @_ZN6hermes2vm17sampling_profiler7Sampler15platformDisableEv(ptr noundef nonnull align 8 dereferenceable(208) %this) local_unnamed_addr #0 align 2 {
entry:
  %actions.i.i = alloca %struct.sigaction, align 8
  %samplingDoneSem_ = getelementptr inbounds i8, ptr %this, i64 216
  %call = tail call noundef zeroext i1 @_ZN6hermes9Semaphore5closeEv(ptr noundef nonnull align 8 dereferenceable(32) %samplingDoneSem_) #14
  br i1 %call, label %if.end, label %return

if.end:                                           ; preds = %entry
  %isSigHandlerRegistered_.i = getelementptr inbounds i8, ptr %this, i64 208
  %0 = load i8, ptr %isSigHandlerRegistered_.i, align 8
  %1 = and i8 %0, 1
  %tobool.not.i = icmp eq i8 %1, 0
  br i1 %tobool.not.i, label %return, label %if.end.i

if.end.i:                                         ; preds = %if.end
  call void @llvm.lifetime.start.p0(i64 152, ptr nonnull %actions.i.i)
  call void @llvm.memset.p0.i64(ptr noundef nonnull align 8 dereferenceable(152) %actions.i.i, i8 0, i64 152, i1 false)
  %sa_mask.i.i = getelementptr inbounds i8, ptr %actions.i.i, i64 8
  %call.i.i = call i32 @sigemptyset(ptr noundef nonnull %sa_mask.i.i) #14
  %sa_flags.i.i = getelementptr inbounds i8, ptr %actions.i.i, i64 136
  store i32 268435456, ptr %sa_flags.i.i, align 8
  store ptr null, ptr %actions.i.i, align 8
  %call1.i.i = call noundef i32 @sigaction(i32 noundef 27, ptr noundef nonnull %actions.i.i, ptr noundef null) #14
  call void @llvm.lifetime.end.p0(i64 152, ptr nonnull %actions.i.i)
  %cmp.not.i = icmp eq i32 %call1.i.i, 0
  br i1 %cmp.not.i, label %if.end3.i, label %if.then2.i

if.then2.i:                                       ; preds = %if.end.i
  call void @perror(ptr noundef nonnull @.str.2) #16
  br label %return

if.end3.i:                                        ; preds = %if.end.i
  store i8 0, ptr %isSigHandlerRegistered_.i, align 8
  br label %return

return:                                           ; preds = %if.end3.i, %if.then2.i, %if.end, %entry
  %retval.0 = phi i1 [ false, %entry ], [ false, %if.then2.i ], [ true, %if.end3.i ], [ true, %if.end ]
  ret i1 %retval.0
}